; Function Attrs: nounwind uwtable
define range(i32 -5, 1) i32 @prte_state_base_add_job_state(i32 noundef %0, ptr noundef %1) local_unnamed_addr #0 {
  %.014 = load ptr, ptr getelementptr inbounds nuw (i8, ptr @prte_job_states, i64 240), align 8, !tbaa !51
  %.not15 = icmp eq ptr %.014, getelementptr inbounds nuw (i8, ptr @prte_job_states, i64 120)
  br i1 %.not15, label %._crit_edge, label %.lr.ph

3:                                                ; preds = %.lr.ph
  %4 = getelementptr inbounds nuw i8, ptr %.016, i64 120
  %.0 = load ptr, ptr %4, align 8, !tbaa !51
  %.not = icmp eq ptr %.0, getelementptr inbounds nuw (i8, ptr @prte_job_states, i64 120)
  br i1 %.not, label %._crit_edge, label %.lr.ph, !llvm.loop !53

.lr.ph:                                           ; preds = %2, %3
  %.016 = phi ptr [ %.0, %3 ], [ %.014, %2 ]
  %5 = getelementptr inbounds nuw i8, ptr %.016, i64 144
  %6 = load i32, ptr %5, align 8, !tbaa !15
  %7 = icmp eq i32 %6, %0
  br i1 %7, label %8, label %3

8:                                                ; preds = %.lr.ph
  %9 = load i32, ptr getelementptr inbounds nuw (i8, ptr @prte_state_base_framework, i64 76), align 4, !tbaa !24
  %or.cond = icmp ult i32 %9, 64
  br i1 %or.cond, label %10, label %42

10:                                               ; preds = %8
  %11 = zext nneg i32 %9 to i64
  %12 = getelementptr inbounds nuw [0 x %struct.pmix_output_desc_t], ptr @pmix_output_info, i64 0, i64 %11, i32 2
  %13 = load i32, ptr %12, align 4, !tbaa !25
  %14 = icmp sgt i32 %13, 0
  br i1 %14, label %15, label %42

15:                                               ; preds = %10
  %16 = tail call ptr @prte_job_state_to_str(i32 noundef %0) #14
  tail call void (i32, ptr, ...) @pmix_output(i32 noundef %9, ptr noundef nonnull @.str.6, ptr noundef %16) #14
  br label %42

._crit_edge:                                      ; preds = %3, %2
  %17 = load i64, ptr getelementptr inbounds nuw (i8, ptr @prte_state_t_class, i64 56), align 8, !tbaa !29
  %18 = tail call noalias noundef ptr @malloc(i64 noundef %17) #15
  %19 = load i32, ptr @pmix_class_init_epoch, align 4, !tbaa !31
  %20 = load i32, ptr getelementptr inbounds nuw (i8, ptr @prte_state_t_class, i64 32), align 8, !tbaa !32
  %.not.i = icmp eq i32 %19, %20
  br i1 %.not.i, label %22, label %21

21:                                               ; preds = %._crit_edge
  tail call void @pmix_class_initialize(ptr noundef nonnull @prte_state_t_class) #14
  br label %22

22:                                               ; preds = %21, %._crit_edge
  %.not22.i = icmp eq ptr %18, null
  br i1 %.not22.i, label %pmix_obj_new_tma.exit, label %23

23:                                               ; preds = %22
  %24 = tail call i32 @pthread_mutex_init(ptr noundef nonnull %18, ptr noundef null) #14
  %25 = getelementptr inbounds nuw i8, ptr %18, i64 40
  store ptr @prte_state_t_class, ptr %25, align 8, !tbaa !33
  %26 = getelementptr inbounds nuw i8, ptr %18, i64 48
  store i32 1, ptr %26, align 8, !tbaa !34
  %27 = getelementptr inbounds nuw i8, ptr %18, i64 56
  %28 = getelementptr inbounds nuw i8, ptr %18, i64 96
  tail call void @llvm.memset.p0.i64(ptr noundef nonnull align 8 dereferenceable(32) %27, i8 0, i64 32, i1 false)
  tail call void @llvm.memset.p0.i64(ptr noundef nonnull align 8 dereferenceable(24) %28, i8 0, i64 24, i1 false)
  %29 = load ptr, ptr getelementptr inbounds nuw (i8, ptr @prte_state_t_class, i64 40), align 8, !tbaa !35
  %30 = load ptr, ptr %29, align 8, !tbaa !36
  %.not6.i.i = icmp eq ptr %30, null
  br i1 %.not6.i.i, label %pmix_obj_new_tma.exit, label %.lr.ph.i.i

.lr.ph.i.i:                                       ; preds = %23, %.lr.ph.i.i
  %31 = phi ptr [ %33, %.lr.ph.i.i ], [ %30, %23 ]
  %.07.i.i = phi ptr [ %32, %.lr.ph.i.i ], [ %29, %23 ]
  tail call void %31(ptr noundef nonnull %18) #14
  %32 = getelementptr inbounds nuw i8, ptr %.07.i.i, i64 8
  %33 = load ptr, ptr %32, align 8, !tbaa !36
  %.not.i.i = icmp eq ptr %33, null
  br i1 %.not.i.i, label %pmix_obj_new_tma.exit, label %.lr.ph.i.i, !llvm.loop !37

pmix_obj_new_tma.exit:                            ; preds = %.lr.ph.i.i, %22, %23
  %34 = getelementptr inbounds nuw i8, ptr %18, i64 144
  store i32 %0, ptr %34, align 8, !tbaa !15
  %35 = getelementptr inbounds nuw i8, ptr %18, i64 152
  store ptr %1, ptr %35, align 8, !tbaa !28
  %36 = load ptr, ptr getelementptr inbounds nuw (i8, ptr @prte_job_states, i64 248), align 8, !tbaa !54
  %37 = getelementptr inbounds nuw i8, ptr %18, i64 128
  store ptr %36, ptr %37, align 8, !tbaa !54
  %38 = getelementptr inbounds nuw i8, ptr %36, i64 120
  store volatile ptr %18, ptr %38, align 8, !tbaa !51
  %39 = getelementptr inbounds nuw i8, ptr %18, i64 120
  store ptr getelementptr inbounds nuw (i8, ptr @prte_job_states, i64 120), ptr %39, align 8, !tbaa !51
  store ptr %18, ptr getelementptr inbounds nuw (i8, ptr @prte_job_states, i64 248), align 8, !tbaa !54
  %40 = load volatile i64, ptr getelementptr inbounds nuw (i8, ptr @prte_job_states, i64 264), align 8, !tbaa !55
  %41 = add i64 %40, 1
  store volatile i64 %41, ptr getelementptr inbounds nuw (i8, ptr @prte_job_states, i64 264), align 8, !tbaa !55
  br label %42

42:                                               ; preds = %8, %10, %15, %pmix_obj_new_tma.exit
  %.011 = phi i32 [ 0, %pmix_obj_new_tma.exit ], [ -5, %15 ], [ -5, %10 ], [ -5, %8 ]
  ret i32 %.011
}